; Function Attrs: mustprogress nounwind uwtable
define noundef ptr @_ZN7glslang13TIntermediate9addBranchENS_9TOperatorEPNS_12TIntermTypedERKNS_10TSourceLocE(ptr nocapture noundef nonnull readnone align 8 dereferenceable(2024) %0, i32 noundef %1, ptr noundef %2, ptr noundef nonnull align 8 dereferenceable(24) %3) local_unnamed_addr #0 align 2 {
  %5 = tail call noundef nonnull align 8 dereferenceable(96) ptr @_ZN7glslang22GetThreadPoolAllocatorEv() #17
  %6 = tail call noundef ptr @_ZN7glslang14TPoolAllocator8allocateEm(ptr noundef nonnull align 8 dereferenceable(96) %5, i64 noundef 48) #17
  %7 = getelementptr inbounds i8, ptr %6, i64 8
  tail call void @llvm.memset.p0.i64(ptr noundef nonnull align 8 dereferenceable(20) %7, i8 0, i64 20, i1 false)
  store ptr getelementptr inbounds inrange(-16, 232) (i8, ptr @_ZTVN7glslang13TIntermBranchE, i64 16), ptr %6, align 8
  %8 = getelementptr inbounds i8, ptr %6, i64 32
  store i32 %1, ptr %8, align 8
  %9 = getelementptr inbounds i8, ptr %6, i64 40
  store ptr %2, ptr %9, align 8
  %10 = load ptr, ptr getelementptr inbounds inrange(-24, 224) (i8, ptr @_ZTVN7glslang13TIntermBranchE, i64 24), align 8
  tail call void %10(ptr noundef nonnull align 8 dereferenceable(32) %6, ptr noundef nonnull align 8 dereferenceable(24) %3) #17
  ret ptr %6
}